target datalayout = "e-m:e-p270:32:32-p271:32:32-p272:64:64-i64:64-i128:128-f80:128-n8:16:32:64-S128"
target triple = "x86_64-unknown-linux-gnu"

%"class.proxygen::ZlibStreamDecompressor" = type <{ %"class.proxygen::StreamDecompressor", i32, [4 x i8], i64, i64, %struct.z_stream_s, i32, [4 x i8] }>
%"class.proxygen::StreamDecompressor" = type { ptr }
%struct.z_stream_s = type { ptr, i32, i64, ptr, i32, i64, ptr, ptr, ptr, ptr, ptr, i32, i64, i64 }

; Function Attrs: mustprogress nounwind uwtable
define linkonce_odr void @_ZN8proxygen18StreamDecompressorD2Ev(ptr noundef nonnull align 8 dereferenceable(8) %this) unnamed_addr #1 comdat align 2 {
entry:
  %this.addr = alloca ptr, align 8
  store ptr %this, ptr %this.addr, align 8
  ret void
}

; Function Attrs: mustprogress nounwind uwtable
define void @_ZN8proxygen22ZlibStreamDecompressorD2Ev(ptr noundef nonnull align 8 dereferenceable(148) %this) unnamed_addr #1 align 2 personality ptr @__gxx_personality_v0 {
entry:
  %this.addr = alloca ptr, align 8
  store ptr %this, ptr %this.addr, align 8
  %this1 = load ptr, ptr %this.addr, align 8
  store ptr getelementptr inbounds ({ [7 x ptr] }, ptr @_ZTVN8proxygen22ZlibStreamDecompressorE, i32 0, i32 0, i32 2), ptr %this1, align 8
  %type_ = getelementptr inbounds %"class.proxygen::ZlibStreamDecompressor", ptr %this1, i32 0, i32 1
  %0 = load i32, ptr %type_, align 8
  %cmp = icmp ne i32 %0, 0
  br i1 %cmp, label %if.then, label %if.end

if.then:                                          ; preds = %entry
  %zlibStream_ = getelementptr inbounds %"class.proxygen::ZlibStreamDecompressor", ptr %this1, i32 0, i32 5
  %call = invoke i32 @inflateEnd(ptr noundef %zlibStream_)
          to label %invoke.cont unwind label %terminate.lpad

invoke.cont:                                      ; preds = %if.then
  %status_ = getelementptr inbounds %"class.proxygen::ZlibStreamDecompressor", ptr %this1, i32 0, i32 6
  store i32 %call, ptr %status_, align 8
  br label %if.end

if.end:                                           ; preds = %invoke.cont, %entry
  call void @_ZN8proxygen18StreamDecompressorD2Ev(ptr noundef nonnull align 8 dereferenceable(8) %this1) #12
  ret void

terminate.lpad:                                   ; preds = %if.then
  %1 = landingpad { ptr, i32 }
          catch ptr null
  %2 = extractvalue { ptr, i32 } %1, 0
  call void @__clang_call_terminate(ptr %2) #11
  unreachable
}