; Function Attrs: mustprogress nounwind uwtable
define void @_ZN8proxygen22ZlibStreamDecompressorD2Ev(ptr noundef nonnull align 8 dereferenceable(148) %this) unnamed_addr #2 align 2 personality ptr @__gxx_personality_v0 {
entry:
  store ptr getelementptr inbounds ({ [7 x ptr] }, ptr @_ZTVN8proxygen22ZlibStreamDecompressorE, i64 0, i32 0, i64 2), ptr %this, align 8
  %type_ = getelementptr inbounds i8, ptr %this, i64 8
  %0 = load i32, ptr %type_, align 8
  %cmp.not = icmp eq i32 %0, 0
  br i1 %cmp.not, label %if.end, label %if.then

if.then:                                          ; preds = %entry
  %zlibStream_ = getelementptr inbounds i8, ptr %this, i64 32
  %call = invoke i32 @inflateEnd(ptr noundef nonnull %zlibStream_)
          to label %invoke.cont unwind label %terminate.lpad

invoke.cont:                                      ; preds = %if.then
  %status_ = getelementptr inbounds i8, ptr %this, i64 144
  store i32 %call, ptr %status_, align 8
  br label %if.end

if.end:                                           ; preds = %invoke.cont, %entry
  ret void

terminate.lpad:                                   ; preds = %if.then
  %1 = landingpad { ptr, i32 }
          catch ptr null
  %2 = extractvalue { ptr, i32 } %1, 0
  tail call void @__clang_call_terminate(ptr %2) #9
  unreachable
}